target datalayout = "e-m:e-p270:32:32-p271:32:32-p272:64:64-i64:64-i128:128-f80:128-n8:16:32:64-S128"
target triple = "x86_64-pc-linux-gnu"

%struct.VLCInitState = type { ptr, i32 }

@__const.imc_init_static.state = private unnamed_addr constant { ptr, i32, [4 x i8] } { ptr @vlc_tables, i32 9512, [4 x i8] zeroinitializer }, align 8
@imc_huffman_sizes = internal constant [4 x i8] c"\11\11\12\12", align 1
@huffman_vlc = internal global [4 x [4 x ptr]] zeroinitializer, align 16

; Function Attrs: cold nounwind optsize uwtable
define internal void @imc_init_static() #0 {
  %1 = alloca %struct.VLCInitState, align 8
  %2 = alloca i32, align 4
  %3 = alloca i32, align 4
  %4 = alloca i32, align 4
  call void @llvm.lifetime.start.p0(i64 16, ptr %1) #10
  call void @llvm.memcpy.p0.p0.i64(ptr align 8 %1, ptr align 8 @__const.imc_init_static.state, i64 16, i1 false)
  call void @llvm.lifetime.start.p0(i64 4, ptr %2) #10
  store i32 0, ptr %2, align 4, !tbaa !39
  br label %5

5:                                                ; preds = %45, %0
  %6 = load i32, ptr %2, align 4, !tbaa !39
  %7 = icmp slt i32 %6, 4
  br i1 %7, label %9, label %8

8:                                                ; preds = %5
  store i32 2, ptr %3, align 4
  call void @llvm.lifetime.end.p0(i64 4, ptr %2) #10
  br label %48

9:                                                ; preds = %5
  call void @llvm.lifetime.start.p0(i64 4, ptr %4) #10
  store i32 0, ptr %4, align 4, !tbaa !39
  br label %10

10:                                               ; preds = %41, %9
  %11 = load i32, ptr %4, align 4, !tbaa !39
  %12 = icmp slt i32 %11, 4
  br i1 %12, label %14, label %13

13:                                               ; preds = %10
  store i32 5, ptr %3, align 4
  call void @llvm.lifetime.end.p0(i64 4, ptr %4) #10
  br label %44

14:                                               ; preds = %10
  %15 = load i32, ptr %2, align 4, !tbaa !39
  %16 = sext i32 %15 to i64
  %17 = getelementptr inbounds [4 x i8], ptr @imc_huffman_sizes, i64 0, i64 %16
  %18 = load i8, ptr %17, align 1, !tbaa !36
  %19 = zext i8 %18 to i32
  %20 = load i32, ptr %2, align 4, !tbaa !39
  %21 = sext i32 %20 to i64
  %22 = getelementptr inbounds [4 x [4 x [18 x i8]]], ptr @imc_huffman_lens, i64 0, i64 %21
  %23 = load i32, ptr %4, align 4, !tbaa !39
  %24 = sext i32 %23 to i64
  %25 = getelementptr inbounds [4 x [18 x i8]], ptr %22, i64 0, i64 %24
  %26 = getelementptr inbounds [18 x i8], ptr %25, i64 0, i64 0
  %27 = load i32, ptr %2, align 4, !tbaa !39
  %28 = sext i32 %27 to i64
  %29 = getelementptr inbounds [4 x [4 x [18 x i8]]], ptr @imc_huffman_syms, i64 0, i64 %28
  %30 = load i32, ptr %4, align 4, !tbaa !39
  %31 = sext i32 %30 to i64
  %32 = getelementptr inbounds [4 x [18 x i8]], ptr %29, i64 0, i64 %31
  %33 = getelementptr inbounds [18 x i8], ptr %32, i64 0, i64 0
  %34 = call ptr @ff_vlc_init_tables_from_lengths(ptr noundef %1, i32 noundef 9, i32 noundef %19, ptr noundef %26, i32 noundef 1, ptr noundef %33, i32 noundef 1, i32 noundef 1, i32 noundef 0, i32 noundef 0)
  %35 = load i32, ptr %2, align 4, !tbaa !39
  %36 = sext i32 %35 to i64
  %37 = getelementptr inbounds [4 x [4 x ptr]], ptr @huffman_vlc, i64 0, i64 %36
  %38 = load i32, ptr %4, align 4, !tbaa !39
  %39 = sext i32 %38 to i64
  %40 = getelementptr inbounds [4 x ptr], ptr %37, i64 0, i64 %39
  store ptr %34, ptr %40, align 8, !tbaa !90
  br label %41

41:                                               ; preds = %14
  %42 = load i32, ptr %4, align 4, !tbaa !39
  %43 = add nsw i32 %42, 1
  store i32 %43, ptr %4, align 4, !tbaa !39
  br label %10, !llvm.loop !92

44:                                               ; preds = %13
  br label %45

45:                                               ; preds = %44
  %46 = load i32, ptr %2, align 4, !tbaa !39
  %47 = add nsw i32 %46, 1
  store i32 %47, ptr %2, align 4, !tbaa !39
  br label %5, !llvm.loop !93

48:                                               ; preds = %8
  call void @llvm.lifetime.end.p0(i64 16, ptr %1) #10
  ret void
}